; Function Attrs: mustprogress nounwind uwtable
define hidden void @_ZN4PLAB22flush_and_retire_statsEP9PLABStats(ptr nocapture noundef nonnull align 8 dereferenceable(128) %0, ptr noundef %1) local_unnamed_addr #1 align 2 {
  %3 = getelementptr inbounds i8, ptr %0, i64 48
  %4 = load ptr, ptr %3, align 8
  %5 = getelementptr inbounds i8, ptr %0, i64 64
  %6 = load ptr, ptr %5, align 8
  %7 = icmp ult ptr %4, %6
  br i1 %7, label %8, label %_ZN4PLAB15retire_internalEv.exit

8:                                                ; preds = %2
  %9 = load ptr, ptr @_ZN8Universe14_collectedHeapE, align 8
  %10 = load ptr, ptr %9, align 8
  %11 = getelementptr inbounds i8, ptr %10, i64 144
  %12 = load ptr, ptr %11, align 8
  tail call void %12(ptr noundef nonnull align 8 dereferenceable(104) %9, ptr noundef %4, ptr noundef nonnull %6, i1 noundef zeroext true) #8
  %13 = load ptr, ptr %5, align 8
  %14 = getelementptr inbounds i8, ptr %0, i64 56
  store ptr %13, ptr %14, align 8
  %15 = load ptr, ptr %3, align 8
  %16 = ptrtoint ptr %13 to i64
  %17 = ptrtoint ptr %15 to i64
  %18 = sub i64 %16, %17
  %19 = lshr i64 %18, 3
  store ptr %13, ptr %3, align 8
  %20 = getelementptr inbounds i8, ptr %0, i64 40
  store ptr %13, ptr %20, align 8
  br label %_ZN4PLAB15retire_internalEv.exit

_ZN4PLAB15retire_internalEv.exit:                 ; preds = %2, %8
  %.0.i = phi i64 [ %19, %8 ], [ 0, %2 ]
  %21 = getelementptr inbounds i8, ptr %0, i64 72
  %22 = load i64, ptr %21, align 8
  %23 = getelementptr inbounds i8, ptr %1, i64 16
  %24 = tail call noundef i64 asm sideeffect "lock xaddq $0,($2)", "=r,0,r,~{cc},~{memory},~{dirflag},~{fpsr},~{flags}"(i64 %22, ptr nonnull %23) #8, !srcloc !6
  %25 = getelementptr inbounds i8, ptr %0, i64 80
  %26 = load i64, ptr %25, align 8
  %27 = getelementptr inbounds i8, ptr %1, i64 24
  %28 = tail call noundef i64 asm sideeffect "lock xaddq $0,($2)", "=r,0,r,~{cc},~{memory},~{dirflag},~{fpsr},~{flags}"(i64 %26, ptr nonnull %27) #8, !srcloc !6
  %29 = getelementptr inbounds i8, ptr %0, i64 88
  %30 = load i64, ptr %29, align 8
  %31 = getelementptr inbounds i8, ptr %1, i64 32
  %32 = tail call noundef i64 asm sideeffect "lock xaddq $0,($2)", "=r,0,r,~{cc},~{memory},~{dirflag},~{fpsr},~{flags}"(i64 %30, ptr nonnull %31) #8, !srcloc !6
  %33 = getelementptr inbounds i8, ptr %1, i64 40
  %34 = tail call noundef i64 asm sideeffect "lock xaddq $0,($2)", "=r,0,r,~{cc},~{memory},~{dirflag},~{fpsr},~{flags}"(i64 %.0.i, ptr nonnull %33) #8, !srcloc !6
  tail call void @llvm.memset.p0.i64(ptr noundef nonnull align 8 dereferenceable(24) %21, i8 0, i64 24, i1 false)
  ret void
}